; Function Attrs: mustprogress nofree norecurse nosync nounwind willreturn memory(argmem: write) uwtable
define hidden void @_ZN6cvtest13MatComparatorC2Edi(ptr nocapture noundef nonnull writeonly align 8 dereferenceable(44) %0, double noundef %1, i32 noundef %2) unnamed_addr #17 align 2 {
  store double %1, ptr %0, align 8
  %4 = getelementptr inbounds i8, ptr %0, i64 8
  store double 0x7FEFFFFFFFFFFFFF, ptr %4, align 8
  %5 = getelementptr inbounds i8, ptr %0, i64 16
  tail call void @llvm.memset.p0.i64(ptr noundef nonnull align 8 dereferenceable(24) %5, i8 0, i64 24, i1 false)
  %6 = getelementptr inbounds i8, ptr %0, i64 40
  store i32 %2, ptr %6, align 8
  ret void
}